target datalayout = "e-m:e-p270:32:32-p271:32:32-p272:64:64-i64:64-i128:128-f80:128-n8:16:32:64-S128"
target triple = "x86_64-pc-linux-gnu"

%struct.SDL_Process = type { i8, i8, i32, i32, ptr }

@.str = private unnamed_addr constant [26 x i8] c"Parameter '%s' is invalid\00", align 1
@.str.8 = private unnamed_addr constant [8 x i8] c"process\00", align 1
@.str.14 = private unnamed_addr constant [22 x i8] c"Process isn't running\00", align 1

; Function Attrs: nounwind uwtable
define hidden zeroext i1 @SDL_KillProcess_REAL(ptr noundef %0, i1 noundef zeroext %1) #0 {
  %3 = alloca i1, align 1
  %4 = alloca ptr, align 8
  %5 = alloca i8, align 1
  store ptr %0, ptr %4, align 8
  %6 = zext i1 %1 to i8
  store i8 %6, ptr %5, align 1
  %7 = load ptr, ptr %4, align 8
  %8 = icmp ne ptr %7, null
  br i1 %8, label %11, label %9

9:                                                ; preds = %2
  %10 = call zeroext i1 (ptr, ...) @SDL_SetError_REAL(ptr noundef @.str, ptr noundef @.str.8)
  store i1 %10, ptr %3, align 1
  br label %23

11:                                               ; preds = %2
  %12 = load ptr, ptr %4, align 8
  %13 = getelementptr inbounds nuw %struct.SDL_Process, ptr %12, i32 0, i32 0
  %14 = load i8, ptr %13, align 8, !range !3, !noundef !4
  %15 = trunc i8 %14 to i1
  br i1 %15, label %18, label %16

16:                                               ; preds = %11
  %17 = call zeroext i1 (ptr, ...) @SDL_SetError_REAL(ptr noundef @.str.14)
  store i1 %17, ptr %3, align 1
  br label %23

18:                                               ; preds = %11
  %19 = load ptr, ptr %4, align 8
  %20 = load i8, ptr %5, align 1, !range !3, !noundef !4
  %21 = trunc i8 %20 to i1
  %22 = call zeroext i1 @SDL_SYS_KillProcess(ptr noundef %19, i1 noundef zeroext %21)
  store i1 %22, ptr %3, align 1
  br label %23

23:                                               ; preds = %18, %16, %9
  %24 = load i1, ptr %3, align 1
  ret i1 %24
}