; Function Attrs: nounwind uwtable
define hidden zeroext i1 @SDL_KillProcess_REAL(ptr noundef %0, i1 noundef zeroext %1) local_unnamed_addr #0 {
  %.not = icmp eq ptr %0, null
  br i1 %.not, label %3, label %5

3:                                                ; preds = %2
  %4 = tail call zeroext i1 (ptr, ...) @SDL_SetError_REAL(ptr noundef nonnull @.str, ptr noundef nonnull @.str.8) #3
  br label %12

5:                                                ; preds = %2
  %6 = load i8, ptr %0, align 8, !range !3, !noundef !4
  %7 = trunc nuw i8 %6 to i1
  br i1 %7, label %10, label %8

8:                                                ; preds = %5
  %9 = tail call zeroext i1 (ptr, ...) @SDL_SetError_REAL(ptr noundef nonnull @.str.14) #3
  br label %12

10:                                               ; preds = %5
  %11 = tail call zeroext i1 @SDL_SYS_KillProcess(ptr noundef nonnull %0, i1 noundef zeroext %1) #3
  br label %12

12:                                               ; preds = %10, %8, %3
  %.0 = phi i1 [ %11, %10 ], [ %9, %8 ], [ %4, %3 ]
  ret i1 %.0
}